; Function Attrs: mustprogress uwtable
define noundef ptr @_ZNK9RBDataMap11getIntArrayERiPKcR10UErrorCode(ptr noundef nonnull align 8 dereferenceable(16) %this, ptr nocapture noundef nonnull align 4 dereferenceable(4) %count, ptr noundef %key, ptr noundef nonnull align 4 dereferenceable(4) %status) unnamed_addr #4 align 2 personality ptr @__gxx_personality_v0 {
entry:
  %ch.i = alloca [256 x i8], align 16
  %stringRes = alloca %"class.icu_75::UnicodeString", align 8
  %ref.tmp = alloca %"class.icu_75::UnicodeString", align 8
  %vtable = load ptr, ptr %this, align 8
  %vfn = getelementptr inbounds i8, ptr %vtable, i64 80
  %0 = load ptr, ptr %vfn, align 8
  %call = tail call noundef ptr %0(ptr noundef nonnull align 8 dereferenceable(16) %this, ptr noundef %key, ptr noundef nonnull align 4 dereferenceable(4) %status)
  %1 = load i32, ptr %status, align 4
  %cmp.i = icmp sgt i32 %1, 0
  br i1 %cmp.i, label %return, label %if.then

if.then:                                          ; preds = %entry
  %call3 = tail call noundef i32 @_ZNK6icu_7514ResourceBundle7getSizeEv(ptr noundef nonnull align 8 dereferenceable(24) %call)
  store i32 %call3, ptr %count, align 4
  %cmp = icmp slt i32 %call3, 1
  br i1 %cmp, label %return, label %for.body.lr.ph

for.body.lr.ph:                                   ; preds = %if.then
  %conv = zext nneg i32 %call3 to i64
  %2 = shl nuw nsw i64 %conv, 2
  %call5 = tail call noalias noundef nonnull ptr @_Znam(i64 noundef %2) #18
  store ptr getelementptr inbounds ({ [13 x ptr] }, ptr @_ZTVN6icu_7513UnicodeStringE, i64 0, i32 0, i64 2), ptr %stringRes, align 8
  %fUnion2.i = getelementptr inbounds i8, ptr %stringRes, i64 8
  store i16 2, ptr %fUnion2.i, align 8
  %fBuffer.i.i = getelementptr inbounds i8, ptr %stringRes, i64 10
  %fArray.i.i = getelementptr inbounds i8, ptr %stringRes, i64 24
  %fLength.i.i = getelementptr inbounds i8, ptr %stringRes, i64 12
  br label %for.body

for.body:                                         ; preds = %for.body.lr.ph, %invoke.cont8
  %indvars.iv = phi i64 [ 0, %for.body.lr.ph ], [ %indvars.iv.next, %invoke.cont8 ]
  %3 = trunc i64 %indvars.iv to i32
  invoke void @_ZNK6icu_7514ResourceBundle11getStringExEiR10UErrorCode(ptr nonnull sret(%"class.icu_75::UnicodeString") align 8 %ref.tmp, ptr noundef nonnull align 8 dereferenceable(24) %call, i32 noundef %3, ptr noundef nonnull align 4 dereferenceable(4) %status)
          to label %invoke.cont unwind label %lpad

invoke.cont:                                      ; preds = %for.body
  %call7 = call noundef nonnull align 8 dereferenceable(64) ptr @_ZN6icu_7513UnicodeStringaSEOS0_(ptr noundef nonnull align 8 dereferenceable(64) %stringRes, ptr noundef nonnull align 8 dereferenceable(64) %ref.tmp) #15
  call void @_ZN6icu_7513UnicodeStringD1Ev(ptr noundef nonnull align 8 dereferenceable(64) %ref.tmp) #15
  call void @llvm.lifetime.start.p0(i64 256, ptr nonnull %ch.i)
  %4 = load i16, ptr %fUnion2.i, align 8
  %conv1.i.i = zext i16 %4 to i32
  %and.i.i = and i32 %conv1.i.i, 17
  %tobool.not.i.i = icmp eq i32 %and.i.i, 0
  %and5.i.i = and i32 %conv1.i.i, 2
  %tobool6.not.i.i = icmp eq i32 %and5.i.i, 0
  %5 = load ptr, ptr %fArray.i.i, align 8
  %spec.select = select i1 %tobool6.not.i.i, ptr %5, ptr %fBuffer.i.i
  %retval.0.i.i = select i1 %tobool.not.i.i, ptr %spec.select, ptr null
  call void asm sideeffect "", "rm,~{memory},~{dirflag},~{fpsr},~{flags}"(ptr %retval.0.i.i) #15, !srcloc !4
  %6 = load i16, ptr %fUnion2.i, align 8
  %cmp.i.i.i = icmp slt i16 %6, 0
  %7 = ashr i16 %6, 5
  %shr.i.i.i = sext i16 %7 to i32
  %8 = load i32, ptr %fLength.i.i, align 4
  %cond.i.i = select i1 %cmp.i.i.i, i32 %8, i32 %shr.i.i.i
  invoke void @u_UCharsToChars_75(ptr noundef %retval.0.i.i, ptr noundef nonnull %ch.i, i32 noundef %cond.i.i)
          to label %invoke.cont8 unwind label %lpad

invoke.cont8:                                     ; preds = %invoke.cont
  %idxprom.i = sext i32 %cond.i.i to i64
  %arrayidx.i = getelementptr inbounds [256 x i8], ptr %ch.i, i64 0, i64 %idxprom.i
  store i8 0, ptr %arrayidx.i, align 1
  %call5.i = call noundef i32 @atoi(ptr nocapture noundef nonnull %ch.i) #16
  call void @llvm.lifetime.end.p0(i64 256, ptr nonnull %ch.i)
  %arrayidx = getelementptr inbounds i32, ptr %call5, i64 %indvars.iv
  store i32 %call5.i, ptr %arrayidx, align 4
  %indvars.iv.next = add nuw nsw i64 %indvars.iv, 1
  %9 = load i32, ptr %count, align 4
  %10 = sext i32 %9 to i64
  %cmp6 = icmp slt i64 %indvars.iv.next, %10
  br i1 %cmp6, label %for.body, label %for.end, !llvm.loop !9

lpad:                                             ; preds = %invoke.cont, %for.body
  %11 = landingpad { ptr, i32 }
          cleanup
  call void @_ZN6icu_7513UnicodeStringD1Ev(ptr noundef nonnull align 8 dereferenceable(64) %stringRes) #15
  resume { ptr, i32 } %11

for.end:                                          ; preds = %invoke.cont8
  call void @_ZN6icu_7513UnicodeStringD1Ev(ptr noundef nonnull align 8 dereferenceable(64) %stringRes) #15
  br label %return

return:                                           ; preds = %entry, %if.then, %for.end
  %retval.0 = phi ptr [ %call5, %for.end ], [ null, %if.then ], [ null, %entry ]
  ret ptr %retval.0
}